(dp0
S'2024501659239653987'
p1
(dp2
S'observable'
p3
S'dPhiJet1Jet2'
p4
sS'region'
p5
S'SR'
p6
sS'lumi'
p7
S'20000'
p8
ssS'-7203989372560082250'
p9
(dp10
S'observable'
p11
S'met'
p12
sS'region'
p13
S'SR'
p14
sS'lumi'
p15
S'20000'
p16
ssS'-4732324890776731269'
p17
(dp18
S'observable'
p19
S'met'
p20
sS'region'
p21
S'SR'
p22
sS'lumi'
p23
S'10000'
p24
ssS'-5976845024647389772'
p25
(dp26
S'observable'
p27
S'nElectrons'
p28
sS'region'
p29
S'GCR'
p30
sS'lumi'
p31
S'20000'
p32
ssS'5716398072597753903'
p33
(dp34
S'observable'
p35
S'dPhiJet1Jet2'
p36
sS'region'
p37
S'SR'
p38
sS'lumi'
p39
S'5000'
p40
ssS'1480043399111856964'
p41
(dp42
S'observable'
p43
S'fakemet'
p44
sS'region'
p45
S'ZCR'
p46
sS'lumi'
p47
S'5000'
p48
ssS'3179390350509372073'
p49
(dp50
S'observable'
p51
S'bDisc'
p52
sS'region'
p53
S'SR'
p54
sS'lumi'
p55
S'20000'
p56
ssS'545582124166593769'
p57
(dp58
S'observable'
p59
S'nMuons'
p60
sS'region'
p61
S'SR'
p62
sS'lumi'
p63
S'20000'
p64
ssS'6756995632979116496'
p65
(dp66
S'observable'
p67
S'jet1Pt'
p68
sS'region'
p69
S'ZCR'
p70
sS'lumi'
p71
S'5000'
p72
ssS'2851784480607409907'
p73
(dp74
S'observable'
p75
S'deltaPhi(jet1,jet2)'
p76
sS'region'
p77
S'SR'
p78
sS'lumi'
p79
S'20000'
p80
ssS'-702783441990049041'
p81
(dp82
S'observable'
p83
S'nMuons'
p84
sS'region'
p85
S'GCR'
p86
sS'lumi'
p87
S'20000'
p88
ssS'-6954957175060904278'
p89
(dp90
S'observable'
p91
S'met'
p92
sS'region'
p93
S'SR'
p94
sS'lumi'
p95
S'5000'
p96
ssS'1574542923481056665'
p97
(dp98
S'observable'
p99
S'jet1Pt'
p100
sS'region'
p101
S'SR'
p102
sS'lumi'
p103
S'20000'
p104
ssS'4755657920951346729'
p105
(dp106
S'observable'
p107
S'nJets'
p108
sS'region'
p109
S'ZCR'
p110
sS'lumi'
p111
S'5000'
p112
ssS'2528951833749297197'
p113
(dp114
S'observable'
p115
S'jet1Pt'
p116
sS'region'
p117
S'SR'
p118
sS'lumi'
p119
S'5000'
p120
ssS'8023788354967729100'
p121
(dp122
S'observable'
p123
S'nJets'
p124
sS'region'
p125
S'SR'
p126
sS'lumi'
p127
S'5000'
p128
ssS'3286011208698795449'
p129
(dp130
S'observable'
p131
S'Zmass'
p132
sS'region'
p133
S'ZCR'
p134
sS'lumi'
p135
S'5000'
p136
ss.